target datalayout = "e-m:e-p270:32:32-p271:32:32-p272:64:64-i64:64-i128:128-f80:128-n8:16:32:64-S128"
target triple = "x86_64-pc-linux-gnu"

; Function Attrs: nounwind uwtable
define internal zeroext i8 @interpolate_bilinear(float noundef %0, float noundef %1, ptr noundef %2, i32 noundef %3, i32 noundef %4, i32 noundef %5, i8 noundef zeroext %6) #0 {
  %8 = alloca i8, align 1
  %9 = alloca float, align 4
  %10 = alloca float, align 4
  %11 = alloca ptr, align 8
  %12 = alloca i32, align 4
  %13 = alloca i32, align 4
  %14 = alloca i32, align 4
  %15 = alloca i8, align 1
  %16 = alloca i32, align 4
  %17 = alloca i32, align 4
  %18 = alloca i32, align 4
  %19 = alloca i32, align 4
  %20 = alloca i32, align 4
  %21 = alloca i32, align 4
  %22 = alloca i32, align 4
  %23 = alloca i32, align 4
  %24 = alloca i32, align 4
  store float %0, ptr %9, align 4, !tbaa !4
  store float %1, ptr %10, align 4, !tbaa !4
  store ptr %2, ptr %11, align 8, !tbaa !11
  store i32 %3, ptr %12, align 4, !tbaa !13
  store i32 %4, ptr %13, align 4, !tbaa !13
  store i32 %5, ptr %14, align 4, !tbaa !13
  store i8 %6, ptr %15, align 1, !tbaa !15
  call void @llvm.lifetime.start.p0(i64 4, ptr %16) #4
  call void @llvm.lifetime.start.p0(i64 4, ptr %17) #4
  call void @llvm.lifetime.start.p0(i64 4, ptr %18) #4
  call void @llvm.lifetime.start.p0(i64 4, ptr %19) #4
  call void @llvm.lifetime.start.p0(i64 4, ptr %20) #4
  call void @llvm.lifetime.start.p0(i64 4, ptr %21) #4
  call void @llvm.lifetime.start.p0(i64 4, ptr %22) #4
  call void @llvm.lifetime.start.p0(i64 4, ptr %23) #4
  %25 = load float, ptr %9, align 4, !tbaa !4
  %26 = fcmp nsz olt float %25, -1.000000e+00
  br i1 %26, label %40, label %27

27:                                               ; preds = %7
  %28 = load float, ptr %9, align 4, !tbaa !4
  %29 = load i32, ptr %12, align 4, !tbaa !13
  %30 = sitofp i32 %29 to float
  %31 = fcmp nsz ogt float %28, %30
  br i1 %31, label %40, label %32

32:                                               ; preds = %27
  %33 = load float, ptr %10, align 4, !tbaa !4
  %34 = fcmp nsz olt float %33, -1.000000e+00
  br i1 %34, label %40, label %35

35:                                               ; preds = %32
  %36 = load float, ptr %10, align 4, !tbaa !4
  %37 = load i32, ptr %13, align 4, !tbaa !13
  %38 = sitofp i32 %37 to float
  %39 = fcmp nsz ogt float %36, %38
  br i1 %39, label %40, label %42

40:                                               ; preds = %35, %32, %27, %7
  %41 = load i8, ptr %15, align 1, !tbaa !15
  store i8 %41, ptr %8, align 1
  store i32 1, ptr %24, align 4
  br label %236

42:                                               ; preds = %35
  %43 = load float, ptr %9, align 4, !tbaa !4
  %44 = fptosi float %43 to i32
  store i32 %44, ptr %17, align 4, !tbaa !13
  %45 = load i32, ptr %17, align 4, !tbaa !13
  %46 = add nsw i32 %45, 1
  store i32 %46, ptr %16, align 4, !tbaa !13
  %47 = load float, ptr %10, align 4, !tbaa !4
  %48 = fptosi float %47 to i32
  store i32 %48, ptr %19, align 4, !tbaa !13
  %49 = load i32, ptr %19, align 4, !tbaa !13
  %50 = add nsw i32 %49, 1
  store i32 %50, ptr %18, align 4, !tbaa !13
  %51 = load i32, ptr %16, align 4, !tbaa !13
  %52 = icmp slt i32 %51, 0
  br i1 %52, label %56, label %53

53:                                               ; preds = %42
  %54 = load i32, ptr %18, align 4, !tbaa !13
  %55 = icmp slt i32 %54, 0
  br i1 %55, label %56, label %59

56:                                               ; preds = %53, %42
  %57 = load i8, ptr %15, align 1, !tbaa !15
  %58 = zext i8 %57 to i32
  br label %83

59:                                               ; preds = %53
  %60 = load i32, ptr %16, align 4, !tbaa !13
  %61 = load i32, ptr %12, align 4, !tbaa !13
  %62 = icmp sge i32 %60, %61
  br i1 %62, label %67, label %63

63:                                               ; preds = %59
  %64 = load i32, ptr %18, align 4, !tbaa !13
  %65 = load i32, ptr %13, align 4, !tbaa !13
  %66 = icmp sge i32 %64, %65
  br i1 %66, label %67, label %70

67:                                               ; preds = %63, %59
  %68 = load i8, ptr %15, align 1, !tbaa !15
  %69 = zext i8 %68 to i32
  br label %81

70:                                               ; preds = %63
  %71 = load ptr, ptr %11, align 8, !tbaa !11
  %72 = load i32, ptr %16, align 4, !tbaa !13
  %73 = load i32, ptr %18, align 4, !tbaa !13
  %74 = load i32, ptr %14, align 4, !tbaa !13
  %75 = mul nsw i32 %73, %74
  %76 = add nsw i32 %72, %75
  %77 = sext i32 %76 to i64
  %78 = getelementptr inbounds i8, ptr %71, i64 %77
  %79 = load i8, ptr %78, align 1, !tbaa !15
  %80 = zext i8 %79 to i32
  br label %81

81:                                               ; preds = %70, %67
  %82 = phi i32 [ %69, %67 ], [ %80, %70 ]
  br label %83

83:                                               ; preds = %81, %56
  %84 = phi i32 [ %58, %56 ], [ %82, %81 ]
  store i32 %84, ptr %20, align 4, !tbaa !13
  %85 = load i32, ptr %16, align 4, !tbaa !13
  %86 = icmp slt i32 %85, 0
  br i1 %86, label %90, label %87

87:                                               ; preds = %83
  %88 = load i32, ptr %19, align 4, !tbaa !13
  %89 = icmp slt i32 %88, 0
  br i1 %89, label %90, label %93

90:                                               ; preds = %87, %83
  %91 = load i8, ptr %15, align 1, !tbaa !15
  %92 = zext i8 %91 to i32
  br label %117

93:                                               ; preds = %87
  %94 = load i32, ptr %16, align 4, !tbaa !13
  %95 = load i32, ptr %12, align 4, !tbaa !13
  %96 = icmp sge i32 %94, %95
  br i1 %96, label %101, label %97

97:                                               ; preds = %93
  %98 = load i32, ptr %19, align 4, !tbaa !13
  %99 = load i32, ptr %13, align 4, !tbaa !13
  %100 = icmp sge i32 %98, %99
  br i1 %100, label %101, label %104

101:                                              ; preds = %97, %93
  %102 = load i8, ptr %15, align 1, !tbaa !15
  %103 = zext i8 %102 to i32
  br label %115

104:                                              ; preds = %97
  %105 = load ptr, ptr %11, align 8, !tbaa !11
  %106 = load i32, ptr %16, align 4, !tbaa !13
  %107 = load i32, ptr %19, align 4, !tbaa !13
  %108 = load i32, ptr %14, align 4, !tbaa !13
  %109 = mul nsw i32 %107, %108
  %110 = add nsw i32 %106, %109
  %111 = sext i32 %110 to i64
  %112 = getelementptr inbounds i8, ptr %105, i64 %111
  %113 = load i8, ptr %112, align 1, !tbaa !15
  %114 = zext i8 %113 to i32
  br label %115

115:                                              ; preds = %104, %101
  %116 = phi i32 [ %103, %101 ], [ %114, %104 ]
  br label %117

117:                                              ; preds = %115, %90
  %118 = phi i32 [ %92, %90 ], [ %116, %115 ]
  store i32 %118, ptr %21, align 4, !tbaa !13
  %119 = load i32, ptr %17, align 4, !tbaa !13
  %120 = icmp slt i32 %119, 0
  br i1 %120, label %124, label %121

121:                                              ; preds = %117
  %122 = load i32, ptr %18, align 4, !tbaa !13
  %123 = icmp slt i32 %122, 0
  br i1 %123, label %124, label %127

124:                                              ; preds = %121, %117
  %125 = load i8, ptr %15, align 1, !tbaa !15
  %126 = zext i8 %125 to i32
  br label %151

127:                                              ; preds = %121
  %128 = load i32, ptr %17, align 4, !tbaa !13
  %129 = load i32, ptr %12, align 4, !tbaa !13
  %130 = icmp sge i32 %128, %129
  br i1 %130, label %135, label %131

131:                                              ; preds = %127
  %132 = load i32, ptr %18, align 4, !tbaa !13
  %133 = load i32, ptr %13, align 4, !tbaa !13
  %134 = icmp sge i32 %132, %133
  br i1 %134, label %135, label %138

135:                                              ; preds = %131, %127
  %136 = load i8, ptr %15, align 1, !tbaa !15
  %137 = zext i8 %136 to i32
  br label %149

138:                                              ; preds = %131
  %139 = load ptr, ptr %11, align 8, !tbaa !11
  %140 = load i32, ptr %17, align 4, !tbaa !13
  %141 = load i32, ptr %18, align 4, !tbaa !13
  %142 = load i32, ptr %14, align 4, !tbaa !13
  %143 = mul nsw i32 %141, %142
  %144 = add nsw i32 %140, %143
  %145 = sext i32 %144 to i64
  %146 = getelementptr inbounds i8, ptr %139, i64 %145
  %147 = load i8, ptr %146, align 1, !tbaa !15
  %148 = zext i8 %147 to i32
  br label %149

149:                                              ; preds = %138, %135
  %150 = phi i32 [ %137, %135 ], [ %148, %138 ]
  br label %151

151:                                              ; preds = %149, %124
  %152 = phi i32 [ %126, %124 ], [ %150, %149 ]
  store i32 %152, ptr %22, align 4, !tbaa !13
  %153 = load i32, ptr %17, align 4, !tbaa !13
  %154 = icmp slt i32 %153, 0
  br i1 %154, label %158, label %155

155:                                              ; preds = %151
  %156 = load i32, ptr %19, align 4, !tbaa !13
  %157 = icmp slt i32 %156, 0
  br i1 %157, label %158, label %161

158:                                              ; preds = %155, %151
  %159 = load i8, ptr %15, align 1, !tbaa !15
  %160 = zext i8 %159 to i32
  br label %185

161:                                              ; preds = %155
  %162 = load i32, ptr %17, align 4, !tbaa !13
  %163 = load i32, ptr %12, align 4, !tbaa !13
  %164 = icmp sge i32 %162, %163
  br i1 %164, label %169, label %165

165:                                              ; preds = %161
  %166 = load i32, ptr %19, align 4, !tbaa !13
  %167 = load i32, ptr %13, align 4, !tbaa !13
  %168 = icmp sge i32 %166, %167
  br i1 %168, label %169, label %172

169:                                              ; preds = %165, %161
  %170 = load i8, ptr %15, align 1, !tbaa !15
  %171 = zext i8 %170 to i32
  br label %183

172:                                              ; preds = %165
  %173 = load ptr, ptr %11, align 8, !tbaa !11
  %174 = load i32, ptr %17, align 4, !tbaa !13
  %175 = load i32, ptr %19, align 4, !tbaa !13
  %176 = load i32, ptr %14, align 4, !tbaa !13
  %177 = mul nsw i32 %175, %176
  %178 = add nsw i32 %174, %177
  %179 = sext i32 %178 to i64
  %180 = getelementptr inbounds i8, ptr %173, i64 %179
  %181 = load i8, ptr %180, align 1, !tbaa !15
  %182 = zext i8 %181 to i32
  br label %183

183:                                              ; preds = %172, %169
  %184 = phi i32 [ %171, %169 ], [ %182, %172 ]
  br label %185

185:                                              ; preds = %183, %158
  %186 = phi i32 [ %160, %158 ], [ %184, %183 ]
  store i32 %186, ptr %23, align 4, !tbaa !13
  %187 = load i32, ptr %20, align 4, !tbaa !13
  %188 = sitofp i32 %187 to float
  %189 = load float, ptr %9, align 4, !tbaa !4
  %190 = load i32, ptr %17, align 4, !tbaa !13
  %191 = sitofp i32 %190 to float
  %192 = fsub nsz float %189, %191
  %193 = fmul nsz float %188, %192
  %194 = load float, ptr %10, align 4, !tbaa !4
  %195 = load i32, ptr %19, align 4, !tbaa !13
  %196 = sitofp i32 %195 to float
  %197 = fsub nsz float %194, %196
  %198 = load i32, ptr %21, align 4, !tbaa !13
  %199 = sitofp i32 %198 to float
  %200 = load float, ptr %9, align 4, !tbaa !4
  %201 = load i32, ptr %17, align 4, !tbaa !13
  %202 = sitofp i32 %201 to float
  %203 = fsub nsz float %200, %202
  %204 = load i32, ptr %18, align 4, !tbaa !13
  %205 = sitofp i32 %204 to float
  %206 = load float, ptr %10, align 4, !tbaa !4
  %207 = fsub nsz float %205, %206
  %208 = fmul nsz float %203, %207
  %209 = fmul nsz float %199, %208
  %210 = call nsz float @llvm.fmuladd.f32(float %193, float %197, float %209)
  %211 = load i32, ptr %22, align 4, !tbaa !13
  %212 = sitofp i32 %211 to float
  %213 = load i32, ptr %16, align 4, !tbaa !13
  %214 = sitofp i32 %213 to float
  %215 = load float, ptr %9, align 4, !tbaa !4
  %216 = fsub nsz float %214, %215
  %217 = fmul nsz float %212, %216
  %218 = load float, ptr %10, align 4, !tbaa !4
  %219 = load i32, ptr %19, align 4, !tbaa !13
  %220 = sitofp i32 %219 to float
  %221 = fsub nsz float %218, %220
  %222 = call nsz float @llvm.fmuladd.f32(float %217, float %221, float %210)
  %223 = load i32, ptr %23, align 4, !tbaa !13
  %224 = sitofp i32 %223 to float
  %225 = load i32, ptr %16, align 4, !tbaa !13
  %226 = sitofp i32 %225 to float
  %227 = load float, ptr %9, align 4, !tbaa !4
  %228 = fsub nsz float %226, %227
  %229 = load i32, ptr %18, align 4, !tbaa !13
  %230 = sitofp i32 %229 to float
  %231 = load float, ptr %10, align 4, !tbaa !4
  %232 = fsub nsz float %230, %231
  %233 = fmul nsz float %228, %232
  %234 = call nsz float @llvm.fmuladd.f32(float %224, float %233, float %222)
  %235 = fptoui float %234 to i8
  store i8 %235, ptr %8, align 1
  store i32 1, ptr %24, align 4
  br label %236

236:                                              ; preds = %185, %40
  call void @llvm.lifetime.end.p0(i64 4, ptr %23) #4
  call void @llvm.lifetime.end.p0(i64 4, ptr %22) #4
  call void @llvm.lifetime.end.p0(i64 4, ptr %21) #4
  call void @llvm.lifetime.end.p0(i64 4, ptr %20) #4
  call void @llvm.lifetime.end.p0(i64 4, ptr %19) #4
  call void @llvm.lifetime.end.p0(i64 4, ptr %18) #4
  call void @llvm.lifetime.end.p0(i64 4, ptr %17) #4
  call void @llvm.lifetime.end.p0(i64 4, ptr %16) #4
  %237 = load i8, ptr %8, align 1
  ret i8 %237
}