; Function Attrs: mustprogress nofree norecurse nosync nounwind willreturn memory(argmem: read) uwtable
define internal zeroext i8 @interpolate_bilinear(float noundef %0, float noundef %1, ptr noundef readonly captures(none) %2, i32 noundef %3, i32 noundef %4, i32 noundef %5, i8 noundef zeroext %6) unnamed_addr #3 {
  %8 = fcmp nsz olt float %0, -1.000000e+00
  br i1 %8, label %77, label %9

9:                                                ; preds = %7
  %10 = sitofp i32 %3 to float
  %11 = fcmp nsz ogt float %0, %10
  %12 = fcmp nsz olt float %1, -1.000000e+00
  %or.cond = or i1 %12, %11
  %13 = sitofp i32 %4 to float
  %14 = fcmp nsz ogt float %1, %13
  %or.cond108 = or i1 %or.cond, %14
  br i1 %or.cond108, label %77, label %15

15:                                               ; preds = %9
  %16 = fptosi float %0 to i32
  %17 = add nsw i32 %16, 1
  %18 = fptosi float %1 to i32
  %19 = add nsw i32 %18, 1
  %20 = icmp slt i32 %16, -1
  %21 = icmp slt i32 %18, -1
  %or.cond3 = select i1 %20, i1 true, i1 %21
  br i1 %or.cond3, label %29, label %22

22:                                               ; preds = %15
  %.not = icmp slt i32 %17, %3
  %.not97 = icmp slt i32 %19, %4
  %or.cond109 = select i1 %.not, i1 %.not97, i1 false
  br i1 %or.cond109, label %23, label %29

23:                                               ; preds = %22
  %24 = mul nsw i32 %5, %19
  %25 = add nsw i32 %24, %17
  %26 = sext i32 %25 to i64
  %27 = getelementptr inbounds i8, ptr %2, i64 %26
  %28 = load i8, ptr %27, align 1, !tbaa !10
  br label %29

29:                                               ; preds = %22, %15, %23
  %.in = phi i8 [ %28, %23 ], [ %6, %15 ], [ %6, %22 ]
  %30 = icmp slt i32 %18, 0
  %or.cond5 = select i1 %20, i1 true, i1 %30
  br i1 %or.cond5, label %38, label %31

31:                                               ; preds = %29
  %.not98 = icmp slt i32 %17, %3
  %.not99 = icmp sgt i32 %4, %18
  %or.cond110 = select i1 %.not98, i1 %.not99, i1 false
  br i1 %or.cond110, label %32, label %38

32:                                               ; preds = %31
  %33 = mul nsw i32 %5, %18
  %34 = add nsw i32 %33, %17
  %35 = sext i32 %34 to i64
  %36 = getelementptr inbounds i8, ptr %2, i64 %35
  %37 = load i8, ptr %36, align 1, !tbaa !10
  br label %38

38:                                               ; preds = %31, %29, %32
  %.in100 = phi i8 [ %37, %32 ], [ %6, %29 ], [ %6, %31 ]
  %39 = icmp slt i32 %16, 0
  %or.cond7 = select i1 %39, i1 true, i1 %21
  br i1 %or.cond7, label %47, label %40

40:                                               ; preds = %38
  %.not101 = icmp sgt i32 %3, %16
  %.not102 = icmp slt i32 %19, %4
  %or.cond111 = select i1 %.not101, i1 %.not102, i1 false
  br i1 %or.cond111, label %41, label %47

41:                                               ; preds = %40
  %42 = mul nsw i32 %5, %19
  %43 = add nsw i32 %42, %16
  %44 = sext i32 %43 to i64
  %45 = getelementptr inbounds i8, ptr %2, i64 %44
  %46 = load i8, ptr %45, align 1, !tbaa !10
  br label %47

47:                                               ; preds = %40, %38, %41
  %.in103 = phi i8 [ %46, %41 ], [ %6, %38 ], [ %6, %40 ]
  %or.cond9 = select i1 %39, i1 true, i1 %30
  br i1 %or.cond9, label %55, label %48

48:                                               ; preds = %47
  %.not104 = icmp sgt i32 %3, %16
  %.not105 = icmp sgt i32 %4, %18
  %or.cond112 = select i1 %.not104, i1 %.not105, i1 false
  br i1 %or.cond112, label %49, label %55

49:                                               ; preds = %48
  %50 = mul nsw i32 %5, %18
  %51 = add nsw i32 %50, %16
  %52 = sext i32 %51 to i64
  %53 = getelementptr inbounds i8, ptr %2, i64 %52
  %54 = load i8, ptr %53, align 1, !tbaa !10
  br label %55

55:                                               ; preds = %48, %47, %49
  %.in106 = phi i8 [ %54, %49 ], [ %6, %47 ], [ %6, %48 ]
  %56 = uitofp i8 %.in to float
  %57 = sitofp i32 %16 to float
  %58 = fsub nsz float %0, %57
  %59 = fmul nsz float %58, %56
  %60 = sitofp i32 %18 to float
  %61 = fsub nsz float %1, %60
  %62 = uitofp i8 %.in100 to float
  %63 = sitofp i32 %19 to float
  %64 = fsub nsz float %63, %1
  %65 = fmul nsz float %58, %64
  %66 = fmul nsz float %65, %62
  %67 = tail call nsz float @llvm.fmuladd.f32(float %59, float %61, float %66)
  %68 = uitofp i8 %.in103 to float
  %69 = sitofp i32 %17 to float
  %70 = fsub nsz float %69, %0
  %71 = fmul nsz float %70, %68
  %72 = tail call nsz float @llvm.fmuladd.f32(float %71, float %61, float %67)
  %73 = uitofp i8 %.in106 to float
  %74 = fmul nsz float %70, %64
  %75 = tail call nsz float @llvm.fmuladd.f32(float %73, float %74, float %72)
  %76 = fptoui float %75 to i8
  br label %77

77:                                               ; preds = %7, %9, %55
  %.0 = phi i8 [ %76, %55 ], [ %6, %9 ], [ %6, %7 ]
  ret i8 %.0
}